; Function Attrs: mustprogress uwtable
define void @_ZN17MLPluginGLContext36smoothModalitySuggestedRenderingDataER15MLRenderingData(ptr noundef nonnull align 8 dereferenceable(40) %0) local_unnamed_addr #4 align 2 personality ptr @__gxx_personality_v0 {
  %2 = alloca %"class.vcg::GLMeshAttributesInfo::RenderingAtts", align 1
  %3 = getelementptr inbounds i8, ptr %2, i64 2
  call void @llvm.memset.p0.i64(ptr noundef nonnull align 1 dereferenceable(7) %3, i8 0, i64 5, i1 false)
  store i8 1, ptr %2, align 1
  %4 = getelementptr inbounds i8, ptr %2, i64 1
  store i8 1, ptr %4, align 1
  %5 = call noundef zeroext i1 @_ZN15MLRenderingData3setEN3vcg20GLMeshAttributesInfo18PRIMITIVE_MODALITYERKNS1_13RenderingAttsINS1_9ATT_NAMESEEE(ptr noundef nonnull align 8 dereferenceable(40) %0, i32 noundef 3, ptr noundef nonnull align 1 dereferenceable(7) %2)
  ret void
}